; Function Attrs: nounwind uwtable
define ptr @l_Lean_Compiler_LCNF_DeclValue_forCodeM___at_Lean_Compiler_LCNF_checkDeadLocalDecls_visitDecl___spec__1(ptr noundef %0, ptr noundef %1, ptr noundef %2) local_unnamed_addr #0 {
  %4 = ptrtoint ptr %1 to i64
  %5 = and i64 %4, 1
  %.not.i22 = icmp eq i64 %5, 0
  br i1 %.not.i22, label %lean_obj_tag.exit.thread, label %lean_obj_tag.exit

lean_obj_tag.exit:                                ; preds = %3
  %6 = and i64 %4, 8589934590
  %7 = icmp eq i64 %6, 0
  br i1 %7, label %10, label %lean_dec.exit16

lean_obj_tag.exit.thread:                         ; preds = %3
  %8 = getelementptr i8, ptr %1, i64 4
  %.val.i = load i32, ptr %8, align 4
  %9 = icmp ult i32 %.val.i, 16777216
  br i1 %9, label %10, label %.thread

10:                                               ; preds = %lean_obj_tag.exit.thread, %lean_obj_tag.exit
  %11 = getelementptr inbounds nuw i8, ptr %1, i64 8
  %12 = load ptr, ptr %11, align 8, !tbaa !9
  %13 = ptrtoint ptr %12 to i64
  %14 = and i64 %13, 1
  %.not26 = icmp eq i64 %14, 0
  br i1 %.not26, label %15, label %lean_inc.exit

15:                                               ; preds = %10
  %.val.i23 = load i32, ptr %12, align 4, !tbaa !4
  %16 = icmp sgt i32 %.val.i23, 0
  br i1 %16, label %17, label %19, !prof !12

17:                                               ; preds = %15
  %18 = add nuw i32 %.val.i23, 1
  store i32 %18, ptr %12, align 4, !tbaa !4
  br label %lean_inc.exit

19:                                               ; preds = %15
  %.not.i24 = icmp eq i32 %.val.i23, 0
  br i1 %.not.i24, label %lean_inc.exit, label %20

20:                                               ; preds = %19
  tail call void @lean_inc_ref_cold(ptr noundef nonnull %12) #4
  br label %lean_inc.exit

lean_inc.exit:                                    ; preds = %20, %19, %17, %10
  br i1 %.not.i22, label %21, label %lean_dec.exit17

21:                                               ; preds = %lean_inc.exit
  %22 = load i32, ptr %1, align 4, !tbaa !4
  %23 = icmp sgt i32 %22, 1
  br i1 %23, label %24, label %26, !prof !12

24:                                               ; preds = %21
  %25 = add nsw i32 %22, -1
  store i32 %25, ptr %1, align 4, !tbaa !4
  br label %lean_dec.exit17

26:                                               ; preds = %21
  %.not.i = icmp eq i32 %22, 0
  br i1 %.not.i, label %lean_dec.exit17, label %27

27:                                               ; preds = %26
  tail call void @lean_dec_ref_cold(ptr noundef nonnull %1) #4
  br label %lean_dec.exit17

lean_dec.exit17:                                  ; preds = %27, %26, %24, %lean_inc.exit
  %28 = tail call ptr @lean_apply_2(ptr noundef %0, ptr noundef %12, ptr noundef %2) #4
  br label %50

.thread:                                          ; preds = %lean_obj_tag.exit.thread
  %29 = load i32, ptr %1, align 4, !tbaa !4
  %30 = icmp sgt i32 %29, 1
  br i1 %30, label %31, label %33, !prof !12

31:                                               ; preds = %.thread
  %32 = add nsw i32 %29, -1
  store i32 %32, ptr %1, align 4, !tbaa !4
  br label %lean_dec.exit16

33:                                               ; preds = %.thread
  %.not.i18 = icmp eq i32 %29, 0
  br i1 %.not.i18, label %lean_dec.exit16, label %34

34:                                               ; preds = %33
  tail call void @lean_dec_ref_cold(ptr noundef nonnull %1) #4
  br label %lean_dec.exit16

lean_dec.exit16:                                  ; preds = %lean_obj_tag.exit, %34, %33, %31
  %35 = ptrtoint ptr %0 to i64
  %36 = and i64 %35, 1
  %.not = icmp eq i64 %36, 0
  br i1 %.not, label %37, label %lean_dec.exit

37:                                               ; preds = %lean_dec.exit16
  %38 = load i32, ptr %0, align 4, !tbaa !4
  %39 = icmp sgt i32 %38, 1
  br i1 %39, label %40, label %42, !prof !12

40:                                               ; preds = %37
  %41 = add nsw i32 %38, -1
  store i32 %41, ptr %0, align 4, !tbaa !4
  br label %lean_dec.exit

42:                                               ; preds = %37
  %.not.i20 = icmp eq i32 %38, 0
  br i1 %.not.i20, label %lean_dec.exit, label %43

43:                                               ; preds = %42
  tail call void @lean_dec_ref_cold(ptr noundef nonnull %0) #4
  br label %lean_dec.exit

lean_dec.exit:                                    ; preds = %43, %42, %40, %lean_dec.exit16
  tail call void @lean_inc_heartbeat() #4
  %44 = tail call noalias ptr @mi_malloc_small(i64 noundef 24) #4
  %45 = icmp eq ptr %44, null
  br i1 %45, label %46, label %lean_alloc_ctor.exit

46:                                               ; preds = %lean_dec.exit
  tail call void @lean_internal_panic_out_of_memory() #5
  unreachable

lean_alloc_ctor.exit:                             ; preds = %lean_dec.exit
  %47 = getelementptr inbounds nuw i8, ptr %44, i64 4
  store i32 1, ptr %44, align 4, !tbaa !4
  store i32 131096, ptr %47, align 4
  %48 = getelementptr inbounds nuw i8, ptr %44, i64 8
  store ptr inttoptr (i64 1 to ptr), ptr %48, align 8, !tbaa !9
  %49 = getelementptr inbounds nuw i8, ptr %44, i64 16
  store ptr %2, ptr %49, align 8, !tbaa !9
  br label %50

50:                                               ; preds = %lean_alloc_ctor.exit, %lean_dec.exit17
  %.0 = phi ptr [ %28, %lean_dec.exit17 ], [ %44, %lean_alloc_ctor.exit ]
  ret ptr %.0
}